target datalayout = "e-m:e-p270:32:32-p271:32:32-p272:64:64-i64:64-i128:128-f80:128-n8:16:32:64-S128"
target triple = "x86_64-pc-linux-gnu"

%struct.sdshdr8 = type { i8, i8, i8, [0 x i8] }
%struct.sdshdr16 = type <{ i16, i16, i8, [0 x i8] }>
%struct.sdshdr32 = type <{ i32, i32, i8, [0 x i8] }>
%struct.sdshdr64 = type <{ i64, i64, i8, [0 x i8] }>
%struct.hashTypeIterator = type { ptr, i32, ptr, ptr, ptr, i64, ptr, ptr }

@.str.2 = private unnamed_addr constant [9 x i8] c"t_hash.c\00", align 1
@.str.23 = private unnamed_addr constant [32 x i8] c"hi->encoding == OBJ_ENCODING_HT\00", align 1

; Function Attrs: inlinehint nounwind uwtable
define internal i64 @sdslen(ptr noundef %0) #7 {
  %2 = alloca i64, align 8
  %3 = alloca ptr, align 8
  %4 = alloca i8, align 1
  %5 = alloca i32, align 4
  store ptr %0, ptr %3, align 8, !tbaa !33
  call void @llvm.lifetime.start.p0(i64 1, ptr %4) #12
  %6 = load ptr, ptr %3, align 8, !tbaa !33
  %7 = getelementptr inbounds i8, ptr %6, i64 -1
  %8 = load i8, ptr %7, align 1, !tbaa !95
  store i8 %8, ptr %4, align 1, !tbaa !95
  %9 = load i8, ptr %4, align 1, !tbaa !95
  %10 = zext i8 %9 to i32
  %11 = and i32 %10, 7
  switch i32 %11, label %40 [
    i32 0, label %12
    i32 1, label %17
    i32 2, label %23
    i32 3, label %29
    i32 4, label %35
  ]

12:                                               ; preds = %1
  %13 = load i8, ptr %4, align 1, !tbaa !95
  %14 = zext i8 %13 to i32
  %15 = ashr i32 %14, 3
  %16 = sext i32 %15 to i64
  store i64 %16, ptr %2, align 8
  store i32 1, ptr %5, align 4
  br label %41

17:                                               ; preds = %1
  %18 = load ptr, ptr %3, align 8, !tbaa !33
  %19 = getelementptr inbounds i8, ptr %18, i64 -3
  %20 = getelementptr inbounds nuw %struct.sdshdr8, ptr %19, i32 0, i32 0
  %21 = load i8, ptr %20, align 1, !tbaa !95
  %22 = zext i8 %21 to i64
  store i64 %22, ptr %2, align 8
  store i32 1, ptr %5, align 4
  br label %41

23:                                               ; preds = %1
  %24 = load ptr, ptr %3, align 8, !tbaa !33
  %25 = getelementptr inbounds i8, ptr %24, i64 -5
  %26 = getelementptr inbounds nuw %struct.sdshdr16, ptr %25, i32 0, i32 0
  %27 = load i16, ptr %26, align 1, !tbaa !96
  %28 = zext i16 %27 to i64
  store i64 %28, ptr %2, align 8
  store i32 1, ptr %5, align 4
  br label %41

29:                                               ; preds = %1
  %30 = load ptr, ptr %3, align 8, !tbaa !33
  %31 = getelementptr inbounds i8, ptr %30, i64 -9
  %32 = getelementptr inbounds nuw %struct.sdshdr32, ptr %31, i32 0, i32 0
  %33 = load i32, ptr %32, align 1, !tbaa !13
  %34 = zext i32 %33 to i64
  store i64 %34, ptr %2, align 8
  store i32 1, ptr %5, align 4
  br label %41

35:                                               ; preds = %1
  %36 = load ptr, ptr %3, align 8, !tbaa !33
  %37 = getelementptr inbounds i8, ptr %36, i64 -17
  %38 = getelementptr inbounds nuw %struct.sdshdr64, ptr %37, i32 0, i32 0
  %39 = load i64, ptr %38, align 1, !tbaa !31
  store i64 %39, ptr %2, align 8
  store i32 1, ptr %5, align 4
  br label %41

40:                                               ; preds = %1
  store i64 0, ptr %2, align 8
  store i32 1, ptr %5, align 4
  br label %41

41:                                               ; preds = %40, %35, %29, %23, %17, %12
  call void @llvm.lifetime.end.p0(i64 1, ptr %4) #12
  %42 = load i64, ptr %2, align 8
  ret i64 %42
}

; Function Attrs: inlinehint nounwind uwtable
define internal i64 @hfieldlen(ptr noundef %0) #7 {
  %2 = alloca ptr, align 8
  store ptr %0, ptr %2, align 8, !tbaa !33
  %3 = load ptr, ptr %2, align 8, !tbaa !33
  %4 = call i64 @mstrlen(ptr noundef %3)
  ret i64 %4
}

; Function Attrs: nounwind uwtable
define dso_local void @hashTypeCurrentFromHashTable(ptr noundef %0, i32 noundef %1, ptr noundef %2, ptr noundef %3, ptr noundef %4) #1 {
  %6 = alloca ptr, align 8
  %7 = alloca i32, align 4
  %8 = alloca ptr, align 8
  %9 = alloca ptr, align 8
  %10 = alloca ptr, align 8
  %11 = alloca ptr, align 8
  %12 = alloca ptr, align 8
  store ptr %0, ptr %6, align 8, !tbaa !10
  store i32 %1, ptr %7, align 4, !tbaa !13
  store ptr %2, ptr %8, align 8, !tbaa !102
  store ptr %3, ptr %9, align 8, !tbaa !107
  store ptr %4, ptr %10, align 8, !tbaa !107
  %13 = load ptr, ptr %6, align 8, !tbaa !10
  %14 = getelementptr inbounds nuw %struct.hashTypeIterator, ptr %13, i32 0, i32 1
  %15 = load i32, ptr %14, align 8, !tbaa !133
  %16 = icmp eq i32 %15, 2
  %17 = xor i1 %16, true
  %18 = xor i1 %17, true
  %19 = zext i1 %18 to i32
  %20 = sext i32 %19 to i64
  %21 = call i64 @llvm.expect.i64(i64 %20, i64 1)
  %22 = icmp ne i64 %21, 0
  br i1 %22, label %23, label %24

23:                                               ; preds = %5
  br label %26

24:                                               ; preds = %5
  call void @_serverAssert(ptr noundef @.str.23, ptr noundef @.str.2, i32 noundef 1471)
  call void @abort() #14
  unreachable

25:                                               ; No predecessors!
  br label %26

26:                                               ; preds = %25, %23
  call void @llvm.lifetime.start.p0(i64 8, ptr %11) #12
  store ptr null, ptr %11, align 8, !tbaa !33
  %27 = load i32, ptr %7, align 4, !tbaa !13
  %28 = and i32 %27, 1
  %29 = icmp ne i32 %28, 0
  br i1 %29, label %30, label %40

30:                                               ; preds = %26
  %31 = load ptr, ptr %6, align 8, !tbaa !10
  %32 = getelementptr inbounds nuw %struct.hashTypeIterator, ptr %31, i32 0, i32 7
  %33 = load ptr, ptr %32, align 8, !tbaa !140
  %34 = call ptr @dictGetKey(ptr noundef %33)
  store ptr %34, ptr %11, align 8, !tbaa !33
  %35 = load ptr, ptr %11, align 8, !tbaa !33
  %36 = load ptr, ptr %8, align 8, !tbaa !102
  store ptr %35, ptr %36, align 8, !tbaa !33
  %37 = load ptr, ptr %11, align 8, !tbaa !33
  %38 = call i64 @hfieldlen(ptr noundef %37)
  %39 = load ptr, ptr %9, align 8, !tbaa !107
  store i64 %38, ptr %39, align 8, !tbaa !31
  br label %50

40:                                               ; preds = %26
  call void @llvm.lifetime.start.p0(i64 8, ptr %12) #12
  %41 = load ptr, ptr %6, align 8, !tbaa !10
  %42 = getelementptr inbounds nuw %struct.hashTypeIterator, ptr %41, i32 0, i32 7
  %43 = load ptr, ptr %42, align 8, !tbaa !140
  %44 = call ptr @dictGetVal(ptr noundef %43)
  store ptr %44, ptr %12, align 8, !tbaa !33
  %45 = load ptr, ptr %12, align 8, !tbaa !33
  %46 = load ptr, ptr %8, align 8, !tbaa !102
  store ptr %45, ptr %46, align 8, !tbaa !33
  %47 = load ptr, ptr %12, align 8, !tbaa !33
  %48 = call i64 @sdslen(ptr noundef %47)
  %49 = load ptr, ptr %9, align 8, !tbaa !107
  store i64 %48, ptr %49, align 8, !tbaa !31
  call void @llvm.lifetime.end.p0(i64 8, ptr %12) #12
  br label %50

50:                                               ; preds = %40, %30
  %51 = load ptr, ptr %10, align 8, !tbaa !107
  %52 = icmp ne ptr %51, null
  br i1 %52, label %53, label %58

53:                                               ; preds = %50
  %54 = load ptr, ptr %6, align 8, !tbaa !10
  %55 = getelementptr inbounds nuw %struct.hashTypeIterator, ptr %54, i32 0, i32 5
  %56 = load i64, ptr %55, align 8, !tbaa !137
  %57 = load ptr, ptr %10, align 8, !tbaa !107
  store i64 %56, ptr %57, align 8, !tbaa !31
  br label %58

58:                                               ; preds = %53, %50
  call void @llvm.lifetime.end.p0(i64 8, ptr %11) #12
  ret void
}