; Function Attrs: nounwind uwtable
define dso_local void @hashTypeCurrentFromHashTable(ptr noundef readonly captures(none) %0, i32 noundef %1, ptr noundef writeonly captures(none) %2, ptr noundef writeonly captures(none) %3, ptr noundef writeonly captures(address_is_null) %4) local_unnamed_addr #1 {
  %6 = getelementptr inbounds nuw i8, ptr %0, i64 8
  %7 = load i32, ptr %6, align 8, !tbaa !113
  %8 = icmp eq i32 %7, 2
  br i1 %8, label %10, label %9, !prof !14

9:                                                ; preds = %5
  tail call void @_serverAssert(ptr noundef nonnull @.str.23, ptr noundef nonnull @.str.2, i32 noundef 1471) #16
  tail call void @abort() #17
  unreachable

10:                                               ; preds = %5
  %11 = and i32 %1, 1
  %.not = icmp eq i32 %11, 0
  %12 = getelementptr inbounds nuw i8, ptr %0, i64 56
  %13 = load ptr, ptr %12, align 8, !tbaa !116
  br i1 %.not, label %17, label %14

14:                                               ; preds = %10
  %15 = tail call ptr @dictGetKey(ptr noundef %13) #16
  store ptr %15, ptr %2, align 8, !tbaa !85
  %16 = tail call i64 @mstrlen(ptr noundef %15) #16
  br label %sdslen.exit

17:                                               ; preds = %10
  %18 = tail call ptr @dictGetVal(ptr noundef %13) #16
  store ptr %18, ptr %2, align 8, !tbaa !85
  %19 = getelementptr inbounds i8, ptr %18, i64 -1
  %20 = load i8, ptr %19, align 1, !tbaa !5
  %21 = zext i8 %20 to i32
  %22 = and i32 %21, 7
  switch i32 %22, label %sdslen.exit [
    i32 0, label %23
    i32 1, label %26
    i32 2, label %30
    i32 3, label %34
    i32 4, label %38
  ]

23:                                               ; preds = %17
  %24 = lshr i32 %21, 3
  %25 = zext nneg i32 %24 to i64
  br label %sdslen.exit

26:                                               ; preds = %17
  %27 = getelementptr inbounds i8, ptr %18, i64 -3
  %28 = load i8, ptr %27, align 1, !tbaa !5
  %29 = zext i8 %28 to i64
  br label %sdslen.exit

30:                                               ; preds = %17
  %31 = getelementptr inbounds i8, ptr %18, i64 -5
  %32 = load i16, ptr %31, align 1, !tbaa !8
  %33 = zext i16 %32 to i64
  br label %sdslen.exit

34:                                               ; preds = %17
  %35 = getelementptr inbounds i8, ptr %18, i64 -9
  %36 = load i32, ptr %35, align 1, !tbaa !65
  %37 = zext i32 %36 to i64
  br label %sdslen.exit

38:                                               ; preds = %17
  %39 = getelementptr inbounds i8, ptr %18, i64 -17
  %40 = load i64, ptr %39, align 1, !tbaa !28
  br label %sdslen.exit

sdslen.exit:                                      ; preds = %38, %34, %30, %26, %23, %17, %14
  %storemerge = phi i64 [ %16, %14 ], [ %40, %38 ], [ %37, %34 ], [ %33, %30 ], [ %29, %26 ], [ %25, %23 ], [ 0, %17 ]
  store i64 %storemerge, ptr %3, align 8, !tbaa !28
  %.not14 = icmp eq ptr %4, null
  br i1 %.not14, label %44, label %41

41:                                               ; preds = %sdslen.exit
  %42 = getelementptr inbounds nuw i8, ptr %0, i64 40
  %43 = load i64, ptr %42, align 8, !tbaa !114
  store i64 %43, ptr %4, align 8, !tbaa !28
  br label %44

44:                                               ; preds = %41, %sdslen.exit
  ret void
}